target datalayout = "e-m:e-p270:32:32-p271:32:32-p272:64:64-i64:64-i128:128-f80:128-n8:16:32:64-S128"
target triple = "x86_64-pc-linux-gnu"

%struct.ImVec2 = type { float, float }
%struct.ImVec4 = type { float, float, float, float }
%struct.ImFontAtlas = type <{ i32, [4 x i8], i64, i32, i32, ptr, i8, i8, i8, [5 x i8], ptr, ptr, i32, i32, %struct.ImVec2, %struct.ImVec2, %struct.ImVector.10, %struct.ImVector.11, %struct.ImVector.12, [33 x %struct.ImVec4], ptr, i32, i32, i32, [4 x i8] }>
%struct.ImVector.10 = type { i32, i32, ptr }
%struct.ImVector.11 = type { i32, i32, ptr }
%struct.ImVector.12 = type { i32, i32, ptr }

@_ZN6ImFontD1Ev = unnamed_addr alias void (ptr), ptr @_ZN6ImFontD2Ev

; Function Attrs: inlinehint mustprogress uwtable
define linkonce_odr void @_ZN8ImVectorIP6ImFontE5clearEv(ptr noundef nonnull align 8 dereferenceable(16) %0) #5 comdat align 2 {
  %2 = alloca ptr, align 8
  store ptr %0, ptr %2, align 8, !tbaa !309
  %3 = load ptr, ptr %2, align 8
  %4 = getelementptr inbounds nuw %struct.ImVector.10, ptr %3, i32 0, i32 2
  %5 = load ptr, ptr %4, align 8, !tbaa !313
  %6 = icmp ne ptr %5, null
  br i1 %6, label %7, label %13

7:                                                ; preds = %1
  %8 = getelementptr inbounds nuw %struct.ImVector.10, ptr %3, i32 0, i32 1
  store i32 0, ptr %8, align 4, !tbaa !311
  %9 = getelementptr inbounds nuw %struct.ImVector.10, ptr %3, i32 0, i32 0
  store i32 0, ptr %9, align 8, !tbaa !312
  %10 = getelementptr inbounds nuw %struct.ImVector.10, ptr %3, i32 0, i32 2
  %11 = load ptr, ptr %10, align 8, !tbaa !313
  call void @_ZN5ImGui7MemFreeEPv(ptr noundef %11)
  %12 = getelementptr inbounds nuw %struct.ImVector.10, ptr %3, i32 0, i32 2
  store ptr null, ptr %12, align 8, !tbaa !313
  br label %13

13:                                               ; preds = %7, %1
  ret void
}

; Function Attrs: mustprogress uwtable
define linkonce_odr void @_Z9IM_DELETEI6ImFontEvPT_(ptr noundef %0) #6 comdat {
  %2 = alloca ptr, align 8
  store ptr %0, ptr %2, align 8, !tbaa !185
  %3 = load ptr, ptr %2, align 8, !tbaa !185
  %4 = icmp ne ptr %3, null
  br i1 %4, label %5, label %8

5:                                                ; preds = %1
  %6 = load ptr, ptr %2, align 8, !tbaa !185
  call void @_ZN6ImFontD1Ev(ptr noundef nonnull align 8 dereferenceable(114) %6) #17
  %7 = load ptr, ptr %2, align 8, !tbaa !185
  call void @_ZN5ImGui7MemFreeEPv(ptr noundef %7)
  br label %8

8:                                                ; preds = %5, %1
  ret void
}

; Function Attrs: inlinehint mustprogress uwtable
define linkonce_odr void @_ZN8ImVectorIP6ImFontE12clear_deleteEv(ptr noundef nonnull align 8 dereferenceable(16) %0) #5 comdat align 2 {
  %2 = alloca ptr, align 8
  %3 = alloca i32, align 4
  store ptr %0, ptr %2, align 8, !tbaa !309
  %4 = load ptr, ptr %2, align 8
  call void @llvm.lifetime.start.p0(i64 4, ptr %3) #17
  store i32 0, ptr %3, align 4, !tbaa !27
  br label %5

5:                                                ; preds = %18, %1
  %6 = load i32, ptr %3, align 4, !tbaa !27
  %7 = getelementptr inbounds nuw %struct.ImVector.10, ptr %4, i32 0, i32 0
  %8 = load i32, ptr %7, align 8, !tbaa !312
  %9 = icmp slt i32 %6, %8
  br i1 %9, label %11, label %10

10:                                               ; preds = %5
  call void @llvm.lifetime.end.p0(i64 4, ptr %3) #17
  br label %21

11:                                               ; preds = %5
  %12 = getelementptr inbounds nuw %struct.ImVector.10, ptr %4, i32 0, i32 2
  %13 = load ptr, ptr %12, align 8, !tbaa !313
  %14 = load i32, ptr %3, align 4, !tbaa !27
  %15 = sext i32 %14 to i64
  %16 = getelementptr inbounds ptr, ptr %13, i64 %15
  %17 = load ptr, ptr %16, align 8, !tbaa !185
  call void @_Z9IM_DELETEI6ImFontEvPT_(ptr noundef %17)
  br label %18

18:                                               ; preds = %11
  %19 = load i32, ptr %3, align 4, !tbaa !27
  %20 = add nsw i32 %19, 1
  store i32 %20, ptr %3, align 4, !tbaa !27
  br label %5, !llvm.loop !334

21:                                               ; preds = %10
  call void @_ZN8ImVectorIP6ImFontE5clearEv(ptr noundef nonnull align 8 dereferenceable(16) %4)
  ret void
}

; Function Attrs: mustprogress uwtable
define void @_ZN11ImFontAtlas10ClearFontsEv(ptr noundef nonnull align 8 dereferenceable(676) %0) #6 align 2 {
  %2 = alloca ptr, align 8
  store ptr %0, ptr %2, align 8, !tbaa !298
  %3 = load ptr, ptr %2, align 8
  call void @_ZN11ImFontAtlas14ClearInputDataEv(ptr noundef nonnull align 8 dereferenceable(676) %3)
  %4 = getelementptr inbounds nuw %struct.ImFontAtlas, ptr %3, i32 0, i32 16
  call void @_ZN8ImVectorIP6ImFontE12clear_deleteEv(ptr noundef nonnull align 8 dereferenceable(16) %4)
  %5 = getelementptr inbounds nuw %struct.ImFontAtlas, ptr %3, i32 0, i32 7
  store i8 0, ptr %5, align 1, !tbaa !333
  ret void
}

; Function Attrs: mustprogress uwtable
define void @_ZN11ImFontAtlas12ClearTexDataEv(ptr noundef nonnull align 8 dereferenceable(676) %0) #6 align 2 {
  %2 = alloca ptr, align 8
  store ptr %0, ptr %2, align 8, !tbaa !298
  %3 = load ptr, ptr %2, align 8
  %4 = getelementptr inbounds nuw %struct.ImFontAtlas, ptr %3, i32 0, i32 10
  %5 = load ptr, ptr %4, align 8, !tbaa !330
  %6 = icmp ne ptr %5, null
  br i1 %6, label %7, label %10

7:                                                ; preds = %1
  %8 = getelementptr inbounds nuw %struct.ImFontAtlas, ptr %3, i32 0, i32 10
  %9 = load ptr, ptr %8, align 8, !tbaa !330
  call void @_ZN5ImGui7MemFreeEPv(ptr noundef %9)
  br label %10

10:                                               ; preds = %7, %1
  %11 = getelementptr inbounds nuw %struct.ImFontAtlas, ptr %3, i32 0, i32 11
  %12 = load ptr, ptr %11, align 8, !tbaa !331
  %13 = icmp ne ptr %12, null
  br i1 %13, label %14, label %17

14:                                               ; preds = %10
  %15 = getelementptr inbounds nuw %struct.ImFontAtlas, ptr %3, i32 0, i32 11
  %16 = load ptr, ptr %15, align 8, !tbaa !331
  call void @_ZN5ImGui7MemFreeEPv(ptr noundef %16)
  br label %17

17:                                               ; preds = %14, %10
  %18 = getelementptr inbounds nuw %struct.ImFontAtlas, ptr %3, i32 0, i32 10
  store ptr null, ptr %18, align 8, !tbaa !330
  %19 = getelementptr inbounds nuw %struct.ImFontAtlas, ptr %3, i32 0, i32 11
  store ptr null, ptr %19, align 8, !tbaa !331
  %20 = getelementptr inbounds nuw %struct.ImFontAtlas, ptr %3, i32 0, i32 8
  store i8 0, ptr %20, align 2, !tbaa !332
  ret void
}

; Function Attrs: mustprogress uwtable
define void @_ZN11ImFontAtlas5ClearEv(ptr noundef nonnull align 8 dereferenceable(676) %0) #6 align 2 {
  %2 = alloca ptr, align 8
  store ptr %0, ptr %2, align 8, !tbaa !298
  %3 = load ptr, ptr %2, align 8
  call void @_ZN11ImFontAtlas14ClearInputDataEv(ptr noundef nonnull align 8 dereferenceable(676) %3)
  call void @_ZN11ImFontAtlas12ClearTexDataEv(ptr noundef nonnull align 8 dereferenceable(676) %3)
  call void @_ZN11ImFontAtlas10ClearFontsEv(ptr noundef nonnull align 8 dereferenceable(676) %3)
  ret void
}