; Function Attrs: mustprogress uwtable
define void @_ZN11ImFontAtlas5ClearEv(ptr noundef nonnull align 8 captures(none) dereferenceable(676) %0) local_unnamed_addr #12 align 2 {
  tail call void @_ZN11ImFontAtlas14ClearInputDataEv(ptr noundef nonnull align 8 dereferenceable(676) %0)
  %2 = getelementptr inbounds nuw i8, ptr %0, i64 40
  %3 = load ptr, ptr %2, align 8, !tbaa !255
  %.not.i = icmp eq ptr %3, null
  br i1 %.not.i, label %5, label %4

4:                                                ; preds = %1
  tail call void @_ZN5ImGui7MemFreeEPv(ptr noundef nonnull %3)
  br label %5

5:                                                ; preds = %4, %1
  %6 = getelementptr inbounds nuw i8, ptr %0, i64 48
  %7 = load ptr, ptr %6, align 8, !tbaa !256
  %.not2.i = icmp eq ptr %7, null
  br i1 %.not2.i, label %_ZN11ImFontAtlas12ClearTexDataEv.exit, label %8

8:                                                ; preds = %5
  tail call void @_ZN5ImGui7MemFreeEPv(ptr noundef nonnull %7)
  br label %_ZN11ImFontAtlas12ClearTexDataEv.exit

_ZN11ImFontAtlas12ClearTexDataEv.exit:            ; preds = %5, %8
  %9 = getelementptr inbounds nuw i8, ptr %0, i64 34
  store i8 0, ptr %9, align 2, !tbaa !257
  tail call void @llvm.memset.p0.i64(ptr noundef nonnull align 8 dereferenceable(16) %2, i8 0, i64 16, i1 false)
  tail call void @_ZN11ImFontAtlas14ClearInputDataEv(ptr noundef nonnull align 8 dereferenceable(676) %0)
  %10 = getelementptr inbounds nuw i8, ptr %0, i64 80
  %11 = load i32, ptr %10, align 8, !tbaa !258
  %12 = icmp sgt i32 %11, 0
  br i1 %12, label %.lr.ph.i.i, label %._crit_edge.i.i

.lr.ph.i.i:                                       ; preds = %_ZN11ImFontAtlas12ClearTexDataEv.exit
  %13 = getelementptr inbounds nuw i8, ptr %0, i64 88
  br label %18

._crit_edge.i.i:                                  ; preds = %_Z9IM_DELETEI6ImFontEvPT_.exit.i.i, %_ZN11ImFontAtlas12ClearTexDataEv.exit
  %14 = getelementptr inbounds nuw i8, ptr %0, i64 88
  %15 = load ptr, ptr %14, align 8, !tbaa !254
  %.not.i.i.i = icmp eq ptr %15, null
  br i1 %.not.i.i.i, label %_ZN11ImFontAtlas10ClearFontsEv.exit, label %16

16:                                               ; preds = %._crit_edge.i.i
  %17 = getelementptr inbounds nuw i8, ptr %0, i64 84
  store i32 0, ptr %17, align 4, !tbaa !259
  store i32 0, ptr %10, align 8, !tbaa !258
  tail call void @_ZN5ImGui7MemFreeEPv(ptr noundef nonnull %15)
  store ptr null, ptr %14, align 8, !tbaa !254
  br label %_ZN11ImFontAtlas10ClearFontsEv.exit

18:                                               ; preds = %_Z9IM_DELETEI6ImFontEvPT_.exit.i.i, %.lr.ph.i.i
  %19 = phi i32 [ %11, %.lr.ph.i.i ], [ %24, %_Z9IM_DELETEI6ImFontEvPT_.exit.i.i ]
  %indvars.iv.i.i = phi i64 [ 0, %.lr.ph.i.i ], [ %indvars.iv.next.i.i, %_Z9IM_DELETEI6ImFontEvPT_.exit.i.i ]
  %20 = load ptr, ptr %13, align 8, !tbaa !254
  %21 = getelementptr inbounds nuw ptr, ptr %20, i64 %indvars.iv.i.i
  %22 = load ptr, ptr %21, align 8, !tbaa !260
  %.not.i3.i.i = icmp eq ptr %22, null
  br i1 %.not.i3.i.i, label %_Z9IM_DELETEI6ImFontEvPT_.exit.i.i, label %23

23:                                               ; preds = %18
  tail call void @_ZN6ImFontD1Ev(ptr noundef nonnull align 8 dereferenceable(114) %22) #42
  tail call void @_ZN5ImGui7MemFreeEPv(ptr noundef nonnull %22)
  %.pre.i.i = load i32, ptr %10, align 8, !tbaa !258
  br label %_Z9IM_DELETEI6ImFontEvPT_.exit.i.i

_Z9IM_DELETEI6ImFontEvPT_.exit.i.i:               ; preds = %23, %18
  %24 = phi i32 [ %19, %18 ], [ %.pre.i.i, %23 ]
  %indvars.iv.next.i.i = add nuw nsw i64 %indvars.iv.i.i, 1
  %25 = sext i32 %24 to i64
  %26 = icmp slt i64 %indvars.iv.next.i.i, %25
  br i1 %26, label %18, label %._crit_edge.i.i, !llvm.loop !261

_ZN11ImFontAtlas10ClearFontsEv.exit:              ; preds = %._crit_edge.i.i, %16
  %27 = getelementptr inbounds nuw i8, ptr %0, i64 33
  store i8 0, ptr %27, align 1, !tbaa !262
  ret void
}